; Function Attrs: mustprogress uwtable
define noundef i32 @_Z22add_atomtype_decoupledP22PreprocessingAtomTypesPPP9t_nbparamS4_(ptr noundef %0, ptr nocapture noundef %1, ptr noundef %2) local_unnamed_addr #1 personality ptr @__gxx_personality_v0 {
  %4 = alloca %struct.t_atom, align 8
  %5 = alloca %"struct.std::array", align 4
  %6 = alloca %"class.std::__cxx11::basic_string", align 8
  %7 = alloca %"class.std::allocator", align 1
  %8 = alloca %class.InteractionOfType, align 8
  %9 = alloca %"class.std::__cxx11::basic_string", align 8
  %10 = alloca %"class.std::allocator", align 1
  store <2 x float> zeroinitializer, ptr %4, align 8
  %11 = getelementptr inbounds i8, ptr %4, i64 20
  store i32 0, ptr %11, align 4
  call void @llvm.memset.p0.i64(ptr noundef nonnull align 4 dereferenceable(48) %5, i8 0, i64 48, i1 false)
  call void @_ZNSaIcEC1Ev(ptr noundef nonnull align 1 dereferenceable(1) %7) #25
  %12 = invoke noundef ptr @_ZNSt7__cxx1112basic_stringIcSt11char_traitsIcESaIcEE13_M_local_dataEv(ptr noundef nonnull align 8 dereferenceable(32) %6)
          to label %.noexc unwind label %25

.noexc:                                           ; preds = %3
  invoke void @_ZNSt7__cxx1112basic_stringIcSt11char_traitsIcESaIcEE12_Alloc_hiderC1EPcRKS3_(ptr noundef nonnull align 8 dereferenceable(8) %6, ptr noundef %12, ptr noundef nonnull align 1 dereferenceable(1) %7)
          to label %.noexc12 unwind label %25

.noexc12:                                         ; preds = %.noexc
  invoke void @_ZNSt7__cxx1112basic_stringIcSt11char_traitsIcESaIcEE12_M_constructIPKcEEvT_S8_St20forward_iterator_tag(ptr noundef nonnull align 8 dereferenceable(32) %6, ptr noundef nonnull @.str.171, ptr noundef nonnull getelementptr inbounds ([10 x i8], ptr @.str.171, i64 0, i64 9))
          to label %_ZNSt7__cxx1112basic_stringIcSt11char_traitsIcESaIcEEC2IS3_EEPKcRKS3_.exit unwind label %13

13:                                               ; preds = %.noexc12
  %14 = landingpad { ptr, i32 }
          cleanup
  call void @_ZNSaIcED2Ev(ptr noundef nonnull align 1 dereferenceable(1) %6) #25
  br label %.body

_ZNSt7__cxx1112basic_stringIcSt11char_traitsIcESaIcEEC2IS3_EEPKcRKS3_.exit: ; preds = %.noexc12
  %15 = getelementptr inbounds i8, ptr %5, i64 48
  call void @_ZNSaIcEC1Ev(ptr noundef nonnull align 1 dereferenceable(1) %10) #25
  %16 = invoke noundef ptr @_ZNSt7__cxx1112basic_stringIcSt11char_traitsIcESaIcEE13_M_local_dataEv(ptr noundef nonnull align 8 dereferenceable(32) %9)
          to label %.noexc13 unwind label %27

.noexc13:                                         ; preds = %_ZNSt7__cxx1112basic_stringIcSt11char_traitsIcESaIcEEC2IS3_EEPKcRKS3_.exit
  invoke void @_ZNSt7__cxx1112basic_stringIcSt11char_traitsIcESaIcEE12_Alloc_hiderC1EPcRKS3_(ptr noundef nonnull align 8 dereferenceable(8) %9, ptr noundef %16, ptr noundef nonnull align 1 dereferenceable(1) %10)
          to label %.noexc14 unwind label %27

.noexc14:                                         ; preds = %.noexc13
  invoke void @_ZNSt7__cxx1112basic_stringIcSt11char_traitsIcESaIcEE12_M_constructIPKcEEvT_S8_St20forward_iterator_tag(ptr noundef nonnull align 8 dereferenceable(32) %9, ptr noundef nonnull @.str.15, ptr noundef nonnull @.str.15)
          to label %_ZNSt7__cxx1112basic_stringIcSt11char_traitsIcESaIcEEC2IS3_EEPKcRKS3_.exit17 unwind label %17

17:                                               ; preds = %.noexc14
  %18 = landingpad { ptr, i32 }
          cleanup
  call void @_ZNSaIcED2Ev(ptr noundef nonnull align 1 dereferenceable(1) %9) #25
  br label %.body15

_ZNSt7__cxx1112basic_stringIcSt11char_traitsIcESaIcEEC2IS3_EEPKcRKS3_.exit17: ; preds = %.noexc14
  invoke void @_ZN17InteractionOfTypeC1EN3gmx8ArrayRefIKiEENS1_IKfEERKNSt7__cxx1112basic_stringIcSt11char_traitsIcESaIcEEE(ptr noundef nonnull align 8 dereferenceable(104) %8, ptr null, ptr null, ptr nonnull %5, ptr nonnull %15, ptr noundef nonnull align 8 dereferenceable(32) %9)
          to label %19 unwind label %29

19:                                               ; preds = %_ZNSt7__cxx1112basic_stringIcSt11char_traitsIcESaIcEEC2IS3_EEPKcRKS3_.exit17
  %20 = invoke noundef i32 @_ZN22PreprocessingAtomTypes7addTypeERK6t_atomRKNSt7__cxx1112basic_stringIcSt11char_traitsIcESaIcEEERK17InteractionOfTypeii(ptr noundef nonnull align 8 dereferenceable(8) %0, ptr noundef nonnull align 4 dereferenceable(36) %4, ptr noundef nonnull align 8 dereferenceable(32) %6, ptr noundef nonnull align 8 dereferenceable(104) %8, i32 noundef -1, i32 noundef 0)
          to label %21 unwind label %31

21:                                               ; preds = %19
  %22 = getelementptr inbounds i8, ptr %8, i64 72
  call void @_ZNSt7__cxx1112basic_stringIcSt11char_traitsIcESaIcEED1Ev(ptr noundef nonnull align 8 dereferenceable(32) %22) #25
  %23 = load ptr, ptr %8, align 8
  %.not.i.i.i.i = icmp eq ptr %23, null
  br i1 %.not.i.i.i.i, label %_ZN17InteractionOfTypeD2Ev.exit, label %24

24:                                               ; preds = %21
  call void @_ZdlPv(ptr noundef nonnull %23) #27
  br label %_ZN17InteractionOfTypeD2Ev.exit

_ZN17InteractionOfTypeD2Ev.exit:                  ; preds = %21, %24
  call void @_ZNSt7__cxx1112basic_stringIcSt11char_traitsIcESaIcEED1Ev(ptr noundef nonnull align 8 dereferenceable(32) %9) #25
  call void @_ZNSaIcED1Ev(ptr noundef nonnull align 1 dereferenceable(1) %10) #25
  call void @_ZNSt7__cxx1112basic_stringIcSt11char_traitsIcESaIcEED1Ev(ptr noundef nonnull align 8 dereferenceable(32) %6) #25
  call void @_ZNSaIcED1Ev(ptr noundef nonnull align 1 dereferenceable(1) %7) #25
  call fastcc void @_ZL17realloc_nb_paramsP22PreprocessingAtomTypesPPP9t_nbparamS4_(ptr noundef nonnull %0, ptr noundef %1, ptr noundef %2)
  ret i32 %20

25:                                               ; preds = %.noexc, %3
  %26 = landingpad { ptr, i32 }
          cleanup
  br label %.body

27:                                               ; preds = %.noexc13, %_ZNSt7__cxx1112basic_stringIcSt11char_traitsIcESaIcEEC2IS3_EEPKcRKS3_.exit
  %28 = landingpad { ptr, i32 }
          cleanup
  br label %.body15

29:                                               ; preds = %_ZNSt7__cxx1112basic_stringIcSt11char_traitsIcESaIcEEC2IS3_EEPKcRKS3_.exit17
  %30 = landingpad { ptr, i32 }
          cleanup
  br label %33

31:                                               ; preds = %19
  %32 = landingpad { ptr, i32 }
          cleanup
  call void @_ZN17InteractionOfTypeD2Ev(ptr noundef nonnull align 8 dereferenceable(104) %8) #25
  br label %33

33:                                               ; preds = %31, %29
  %.pn = phi { ptr, i32 } [ %32, %31 ], [ %30, %29 ]
  call void @_ZNSt7__cxx1112basic_stringIcSt11char_traitsIcESaIcEED1Ev(ptr noundef nonnull align 8 dereferenceable(32) %9) #25
  br label %.body15

.body15:                                          ; preds = %27, %17, %33
  %.pn.pn = phi { ptr, i32 } [ %.pn, %33 ], [ %28, %27 ], [ %18, %17 ]
  call void @_ZNSaIcED1Ev(ptr noundef nonnull align 1 dereferenceable(1) %10) #25
  call void @_ZNSt7__cxx1112basic_stringIcSt11char_traitsIcESaIcEED1Ev(ptr noundef nonnull align 8 dereferenceable(32) %6) #25
  br label %.body

.body:                                            ; preds = %25, %13, %.body15
  %.pn.pn.pn = phi { ptr, i32 } [ %.pn.pn, %.body15 ], [ %26, %25 ], [ %14, %13 ]
  call void @_ZNSaIcED1Ev(ptr noundef nonnull align 1 dereferenceable(1) %7) #25
  resume { ptr, i32 } %.pn.pn.pn
}